target datalayout = "e-m:e-p270:32:32-p271:32:32-p272:64:64-i64:64-i128:128-f80:128-n8:16:32:64-S128"
target triple = "x86_64-unknown-linux-gnu"

%"class.cvc5::internal::FatalStream" = type { i8 }

@.str = private unnamed_addr constant [5 x i8] c"lazy\00", align 1
@.str.1 = private unnamed_addr constant [6 x i8] c"eager\00", align 1
@__PRETTY_FUNCTION__._ZN4cvc58internal7optionslsERSoNS1_12BitblastModeE = private unnamed_addr constant [80 x i8] c"std::ostream &cvc5::internal::options::operator<<(std::ostream &, BitblastMode)\00", align 1
@.str.2 = private unnamed_addr constant [121 x i8] c"generated/home/dtcxzyw/WorkSpace/Projects/compilers/llvm-opt-benchmark/bench/cvc5/bench_build/src/options/bv_options.cpp\00", align 1
@.str.3 = private unnamed_addr constant [26 x i8] c"Unreachable code reached \00", align 1

; Function Attrs: mustprogress uwtable
define hidden noundef nonnull align 8 dereferenceable(8) ptr @_ZN4cvc58internal7optionslsERSoNS1_12BitblastModeE(ptr noundef nonnull align 8 dereferenceable(8) %os, i32 noundef %mode) #4 personality ptr @__gxx_personality_v0 {
entry:
  %retval = alloca ptr, align 8
  %os.addr = alloca ptr, align 8
  %mode.addr = alloca i32, align 4
  %ref.tmp = alloca %"class.cvc5::internal::FatalStream", align 1
  %exn.slot = alloca ptr, align 8
  %ehselector.slot = alloca i32, align 4
  store ptr %os, ptr %os.addr, align 8
  store i32 %mode, ptr %mode.addr, align 4
  %0 = load i32, ptr %mode.addr, align 4
  switch i32 %0, label %sw.default [
    i32 0, label %sw.bb
    i32 1, label %sw.bb1
  ]

sw.bb:                                            ; preds = %entry
  %1 = load ptr, ptr %os.addr, align 8
  %call = call noundef nonnull align 8 dereferenceable(8) ptr @_ZStlsISt11char_traitsIcEERSt13basic_ostreamIcT_ES5_PKc(ptr noundef nonnull align 8 dereferenceable(8) %1, ptr noundef @.str)
  store ptr %call, ptr %retval, align 8
  br label %return

sw.bb1:                                           ; preds = %entry
  %2 = load ptr, ptr %os.addr, align 8
  %call2 = call noundef nonnull align 8 dereferenceable(8) ptr @_ZStlsISt11char_traitsIcEERSt13basic_ostreamIcT_ES5_PKc(ptr noundef nonnull align 8 dereferenceable(8) %2, ptr noundef @.str.1)
  store ptr %call2, ptr %retval, align 8
  br label %return

sw.default:                                       ; preds = %entry
  call void @_ZN4cvc58internal11FatalStreamC1EPKcS3_i(ptr noundef nonnull align 1 dereferenceable(1) %ref.tmp, ptr noundef @__PRETTY_FUNCTION__._ZN4cvc58internal7optionslsERSoNS1_12BitblastModeE, ptr noundef @.str.2, i32 noundef 34)
  %call3 = invoke noundef nonnull align 8 dereferenceable(8) ptr @_ZN4cvc58internal11FatalStream6streamEv(ptr noundef nonnull align 1 dereferenceable(1) %ref.tmp)
          to label %invoke.cont unwind label %lpad

invoke.cont:                                      ; preds = %sw.default
  %call5 = invoke noundef nonnull align 8 dereferenceable(8) ptr @_ZStlsISt11char_traitsIcEERSt13basic_ostreamIcT_ES5_PKc(ptr noundef nonnull align 8 dereferenceable(8) %call3, ptr noundef @.str.3)
          to label %invoke.cont4 unwind label %lpad

invoke.cont4:                                     ; preds = %invoke.cont
  call void @_ZN4cvc58internal11FatalStreamD1Ev(ptr noundef nonnull align 1 dereferenceable(1) %ref.tmp) #10
  unreachable

lpad:                                             ; preds = %invoke.cont, %sw.default
  %3 = landingpad { ptr, i32 }
          cleanup
  %4 = extractvalue { ptr, i32 } %3, 0
  store ptr %4, ptr %exn.slot, align 8
  %5 = extractvalue { ptr, i32 } %3, 1
  store i32 %5, ptr %ehselector.slot, align 4
  call void @_ZN4cvc58internal11FatalStreamD1Ev(ptr noundef nonnull align 1 dereferenceable(1) %ref.tmp) #10
  unreachable

6:                                                ; No predecessors!
  br label %eh.resume

return:                                           ; preds = %sw.bb1, %sw.bb
  %7 = load ptr, ptr %retval, align 8
  ret ptr %7

eh.resume:                                        ; preds = %6
  %exn = load ptr, ptr %exn.slot, align 8
  %sel = load i32, ptr %ehselector.slot, align 4
  %lpad.val = insertvalue { ptr, i32 } poison, ptr %exn, 0
  %lpad.val6 = insertvalue { ptr, i32 } %lpad.val, i32 %sel, 1
  resume { ptr, i32 } %lpad.val6
}